(dp0
Vengine
p1
Vpdflatex
p2
sVpackages
p3
c__builtin__
set
p4
((lp5
Vhyperref
p6
aVenumitem
p7
aVxcolor
p8
aVmultirow
p9
aVtabularx
p10
aVplaceins
p11
aVgraphicx
p12
aVamssymb
p13
atp14
Rp15
sVfiles_with_guttermarks
p16
g4
((lp17
V/Users/s7m/Research/ForeignAid/./Paper/5_fAidEmp.tex
p18
aV/Users/s7m/Research/ForeignAid/Paper/5_fAidEmp.tex
p19
aV/Users/s7m/Research/ForeignAid/./Paper/7_fAidAppendix.tex
p20
aV/Users/s7m/Research/ForeignAid/Paper/3_fAidTheory.tex
p21
aV/Users/s7m/Research/ForeignAid/./fAid.tex
p22
aS'fAid.tex'
p23
aV/Users/s7m/Research/ForeignAid/Paper/7_fAidAppendix.tex
p24
aV/Users/s7m/Research/ForeignAid/./Paper/3_fAidTheory.tex
p25
atp26
Rp27
sVsynctex
p28
I01
s.