(dp0
Vengine
p1
Vxelatex
p2
sVpackages
p3
c__builtin__
set
p4
((lp5
Vmulticol
p6
aVccicons
p7
aVsubfig
p8
aVbooktabs
p9
atp10
Rp11
sVfiles_with_guttermarks
p12
g4
((lp13
S'fAidDeck.tex'
p14
aV/Users/s7m/Research/ForeignAid/Presentations/fAidDeck.tex
p15
aV/Users/s7m/Research/ForeignAid/Presentations/./fAidDeck.tex
p16
atp17
Rp18
sVsynctex
p19
I01
s.